target datalayout = "e-m:e-p270:32:32-p271:32:32-p272:64:64-i64:64-i128:128-f80:128-n8:16:32:64-S128"
target triple = "x86_64-pc-linux-gnu"

; Function Attrs: alwaysinline nounwind uwtable
define internal void @_mm_store_ps(ptr noundef %0, <4 x float> noundef %1) #3 {
  %3 = alloca ptr, align 8
  %4 = alloca <4 x float>, align 16
  store ptr %0, ptr %3, align 8, !tbaa !21
  store <4 x float> %1, ptr %4, align 16, !tbaa !10
  %5 = load <4 x float>, ptr %4, align 16, !tbaa !10
  %6 = load ptr, ptr %3, align 8, !tbaa !21
  store <4 x float> %5, ptr %6, align 16, !tbaa !10
  ret void
}

; Function Attrs: alwaysinline nounwind uwtable
define internal <4 x float> @_mm_sub_ps(<4 x float> noundef %0, <4 x float> noundef %1) #3 {
  %3 = alloca <4 x float>, align 16
  %4 = alloca <4 x float>, align 16
  store <4 x float> %0, ptr %3, align 16, !tbaa !10
  store <4 x float> %1, ptr %4, align 16, !tbaa !10
  %5 = load <4 x float>, ptr %3, align 16, !tbaa !10
  %6 = load <4 x float>, ptr %4, align 16, !tbaa !10
  %7 = fsub <4 x float> %5, %6
  ret <4 x float> %7
}

; Function Attrs: alwaysinline nounwind uwtable
define internal <4 x float> @_mm_add_ps(<4 x float> noundef %0, <4 x float> noundef %1) #3 {
  %3 = alloca <4 x float>, align 16
  %4 = alloca <4 x float>, align 16
  store <4 x float> %0, ptr %3, align 16, !tbaa !10
  store <4 x float> %1, ptr %4, align 16, !tbaa !10
  %5 = load <4 x float>, ptr %3, align 16, !tbaa !10
  %6 = load <4 x float>, ptr %4, align 16, !tbaa !10
  %7 = fadd <4 x float> %5, %6
  ret <4 x float> %7
}

; Function Attrs: alwaysinline nounwind uwtable
define internal <4 x float> @_mm_mul_ps(<4 x float> noundef %0, <4 x float> noundef %1) #3 {
  %3 = alloca <4 x float>, align 16
  %4 = alloca <4 x float>, align 16
  store <4 x float> %0, ptr %3, align 16, !tbaa !10
  store <4 x float> %1, ptr %4, align 16, !tbaa !10
  %5 = load <4 x float>, ptr %3, align 16, !tbaa !10
  %6 = load <4 x float>, ptr %4, align 16, !tbaa !10
  %7 = fmul <4 x float> %5, %6
  ret <4 x float> %7
}

; Function Attrs: alwaysinline nounwind uwtable
define internal <4 x float> @_mm_load_ps(ptr noundef %0) #3 {
  %2 = alloca ptr, align 8
  store ptr %0, ptr %2, align 8, !tbaa !21
  %3 = load ptr, ptr %2, align 8, !tbaa !21
  %4 = load <4 x float>, ptr %3, align 16, !tbaa !10
  ret <4 x float> %4
}

; Function Attrs: alwaysinline nounwind uwtable
define internal <4 x float> @_mm_set1_ps(float noundef %0) #3 {
  %2 = alloca float, align 4
  %3 = alloca <4 x float>, align 16
  store float %0, ptr %2, align 4, !tbaa !24
  %4 = load float, ptr %2, align 4, !tbaa !24
  %5 = insertelement <4 x float> poison, float %4, i32 0
  %6 = load float, ptr %2, align 4, !tbaa !24
  %7 = insertelement <4 x float> %5, float %6, i32 1
  %8 = load float, ptr %2, align 4, !tbaa !24
  %9 = insertelement <4 x float> %7, float %8, i32 2
  %10 = load float, ptr %2, align 4, !tbaa !24
  %11 = insertelement <4 x float> %9, float %10, i32 3
  store <4 x float> %11, ptr %3, align 16, !tbaa !10
  %12 = load <4 x float>, ptr %3, align 16, !tbaa !10
  ret <4 x float> %12
}

; Function Attrs: nounwind uwtable
define hidden void @opj_mct_decode_real(ptr noalias noundef %0, ptr noalias noundef %1, ptr noalias noundef %2, i64 noundef %3) #1 {
  %5 = alloca ptr, align 8
  %6 = alloca ptr, align 8
  %7 = alloca ptr, align 8
  %8 = alloca i64, align 8
  %9 = alloca i64, align 8
  %10 = alloca <4 x float>, align 16
  %11 = alloca <4 x float>, align 16
  %12 = alloca <4 x float>, align 16
  %13 = alloca <4 x float>, align 16
  %14 = alloca <4 x float>, align 16
  %15 = alloca <4 x float>, align 16
  %16 = alloca <4 x float>, align 16
  %17 = alloca <4 x float>, align 16
  %18 = alloca <4 x float>, align 16
  %19 = alloca <4 x float>, align 16
  %20 = alloca float, align 4
  %21 = alloca float, align 4
  %22 = alloca float, align 4
  %23 = alloca float, align 4
  %24 = alloca float, align 4
  %25 = alloca float, align 4
  store ptr %0, ptr %5, align 8, !tbaa !21
  store ptr %1, ptr %6, align 8, !tbaa !21
  store ptr %2, ptr %7, align 8, !tbaa !21
  store i64 %3, ptr %8, align 8, !tbaa !8
  call void @llvm.lifetime.start.p0(i64 8, ptr %9) #9
  call void @llvm.lifetime.start.p0(i64 16, ptr %10) #9
  call void @llvm.lifetime.start.p0(i64 16, ptr %11) #9
  call void @llvm.lifetime.start.p0(i64 16, ptr %12) #9
  call void @llvm.lifetime.start.p0(i64 16, ptr %13) #9
  %26 = call <4 x float> @_mm_set1_ps(float noundef 0x3FF66E9780000000)
  store <4 x float> %26, ptr %10, align 16, !tbaa !10
  %27 = call <4 x float> @_mm_set1_ps(float noundef 0x3FD60639E0000000)
  store <4 x float> %27, ptr %11, align 16, !tbaa !10
  %28 = call <4 x float> @_mm_set1_ps(float noundef 0x3FE6DA3C20000000)
  store <4 x float> %28, ptr %12, align 16, !tbaa !10
  %29 = call <4 x float> @_mm_set1_ps(float noundef 0x3FFC5A1CA0000000)
  store <4 x float> %29, ptr %13, align 16, !tbaa !10
  store i64 0, ptr %9, align 8, !tbaa !8
  br label %30

30:                                               ; preds = %110, %4
  %31 = load i64, ptr %9, align 8, !tbaa !8
  %32 = load i64, ptr %8, align 8, !tbaa !8
  %33 = lshr i64 %32, 3
  %34 = icmp ult i64 %31, %33
  br i1 %34, label %35, label %113

35:                                               ; preds = %30
  call void @llvm.lifetime.start.p0(i64 16, ptr %14) #9
  call void @llvm.lifetime.start.p0(i64 16, ptr %15) #9
  call void @llvm.lifetime.start.p0(i64 16, ptr %16) #9
  call void @llvm.lifetime.start.p0(i64 16, ptr %17) #9
  call void @llvm.lifetime.start.p0(i64 16, ptr %18) #9
  call void @llvm.lifetime.start.p0(i64 16, ptr %19) #9
  %36 = load ptr, ptr %5, align 8, !tbaa !21
  %37 = call <4 x float> @_mm_load_ps(ptr noundef %36)
  store <4 x float> %37, ptr %14, align 16, !tbaa !10
  %38 = load ptr, ptr %6, align 8, !tbaa !21
  %39 = call <4 x float> @_mm_load_ps(ptr noundef %38)
  store <4 x float> %39, ptr %15, align 16, !tbaa !10
  %40 = load ptr, ptr %7, align 8, !tbaa !21
  %41 = call <4 x float> @_mm_load_ps(ptr noundef %40)
  store <4 x float> %41, ptr %16, align 16, !tbaa !10
  %42 = load <4 x float>, ptr %14, align 16, !tbaa !10
  %43 = load <4 x float>, ptr %16, align 16, !tbaa !10
  %44 = load <4 x float>, ptr %10, align 16, !tbaa !10
  %45 = call <4 x float> @_mm_mul_ps(<4 x float> noundef %43, <4 x float> noundef %44)
  %46 = call <4 x float> @_mm_add_ps(<4 x float> noundef %42, <4 x float> noundef %45)
  store <4 x float> %46, ptr %17, align 16, !tbaa !10
  %47 = load <4 x float>, ptr %14, align 16, !tbaa !10
  %48 = load <4 x float>, ptr %15, align 16, !tbaa !10
  %49 = load <4 x float>, ptr %11, align 16, !tbaa !10
  %50 = call <4 x float> @_mm_mul_ps(<4 x float> noundef %48, <4 x float> noundef %49)
  %51 = call <4 x float> @_mm_sub_ps(<4 x float> noundef %47, <4 x float> noundef %50)
  %52 = load <4 x float>, ptr %16, align 16, !tbaa !10
  %53 = load <4 x float>, ptr %12, align 16, !tbaa !10
  %54 = call <4 x float> @_mm_mul_ps(<4 x float> noundef %52, <4 x float> noundef %53)
  %55 = call <4 x float> @_mm_sub_ps(<4 x float> noundef %51, <4 x float> noundef %54)
  store <4 x float> %55, ptr %18, align 16, !tbaa !10
  %56 = load <4 x float>, ptr %14, align 16, !tbaa !10
  %57 = load <4 x float>, ptr %15, align 16, !tbaa !10
  %58 = load <4 x float>, ptr %13, align 16, !tbaa !10
  %59 = call <4 x float> @_mm_mul_ps(<4 x float> noundef %57, <4 x float> noundef %58)
  %60 = call <4 x float> @_mm_add_ps(<4 x float> noundef %56, <4 x float> noundef %59)
  store <4 x float> %60, ptr %19, align 16, !tbaa !10
  %61 = load ptr, ptr %5, align 8, !tbaa !21
  %62 = load <4 x float>, ptr %17, align 16, !tbaa !10
  call void @_mm_store_ps(ptr noundef %61, <4 x float> noundef %62)
  %63 = load ptr, ptr %6, align 8, !tbaa !21
  %64 = load <4 x float>, ptr %18, align 16, !tbaa !10
  call void @_mm_store_ps(ptr noundef %63, <4 x float> noundef %64)
  %65 = load ptr, ptr %7, align 8, !tbaa !21
  %66 = load <4 x float>, ptr %19, align 16, !tbaa !10
  call void @_mm_store_ps(ptr noundef %65, <4 x float> noundef %66)
  %67 = load ptr, ptr %5, align 8, !tbaa !21
  %68 = getelementptr inbounds float, ptr %67, i64 4
  store ptr %68, ptr %5, align 8, !tbaa !21
  %69 = load ptr, ptr %6, align 8, !tbaa !21
  %70 = getelementptr inbounds float, ptr %69, i64 4
  store ptr %70, ptr %6, align 8, !tbaa !21
  %71 = load ptr, ptr %7, align 8, !tbaa !21
  %72 = getelementptr inbounds float, ptr %71, i64 4
  store ptr %72, ptr %7, align 8, !tbaa !21
  %73 = load ptr, ptr %5, align 8, !tbaa !21
  %74 = call <4 x float> @_mm_load_ps(ptr noundef %73)
  store <4 x float> %74, ptr %14, align 16, !tbaa !10
  %75 = load ptr, ptr %6, align 8, !tbaa !21
  %76 = call <4 x float> @_mm_load_ps(ptr noundef %75)
  store <4 x float> %76, ptr %15, align 16, !tbaa !10
  %77 = load ptr, ptr %7, align 8, !tbaa !21
  %78 = call <4 x float> @_mm_load_ps(ptr noundef %77)
  store <4 x float> %78, ptr %16, align 16, !tbaa !10
  %79 = load <4 x float>, ptr %14, align 16, !tbaa !10
  %80 = load <4 x float>, ptr %16, align 16, !tbaa !10
  %81 = load <4 x float>, ptr %10, align 16, !tbaa !10
  %82 = call <4 x float> @_mm_mul_ps(<4 x float> noundef %80, <4 x float> noundef %81)
  %83 = call <4 x float> @_mm_add_ps(<4 x float> noundef %79, <4 x float> noundef %82)
  store <4 x float> %83, ptr %17, align 16, !tbaa !10
  %84 = load <4 x float>, ptr %14, align 16, !tbaa !10
  %85 = load <4 x float>, ptr %15, align 16, !tbaa !10
  %86 = load <4 x float>, ptr %11, align 16, !tbaa !10
  %87 = call <4 x float> @_mm_mul_ps(<4 x float> noundef %85, <4 x float> noundef %86)
  %88 = call <4 x float> @_mm_sub_ps(<4 x float> noundef %84, <4 x float> noundef %87)
  %89 = load <4 x float>, ptr %16, align 16, !tbaa !10
  %90 = load <4 x float>, ptr %12, align 16, !tbaa !10
  %91 = call <4 x float> @_mm_mul_ps(<4 x float> noundef %89, <4 x float> noundef %90)
  %92 = call <4 x float> @_mm_sub_ps(<4 x float> noundef %88, <4 x float> noundef %91)
  store <4 x float> %92, ptr %18, align 16, !tbaa !10
  %93 = load <4 x float>, ptr %14, align 16, !tbaa !10
  %94 = load <4 x float>, ptr %15, align 16, !tbaa !10
  %95 = load <4 x float>, ptr %13, align 16, !tbaa !10
  %96 = call <4 x float> @_mm_mul_ps(<4 x float> noundef %94, <4 x float> noundef %95)
  %97 = call <4 x float> @_mm_add_ps(<4 x float> noundef %93, <4 x float> noundef %96)
  store <4 x float> %97, ptr %19, align 16, !tbaa !10
  %98 = load ptr, ptr %5, align 8, !tbaa !21
  %99 = load <4 x float>, ptr %17, align 16, !tbaa !10
  call void @_mm_store_ps(ptr noundef %98, <4 x float> noundef %99)
  %100 = load ptr, ptr %6, align 8, !tbaa !21
  %101 = load <4 x float>, ptr %18, align 16, !tbaa !10
  call void @_mm_store_ps(ptr noundef %100, <4 x float> noundef %101)
  %102 = load ptr, ptr %7, align 8, !tbaa !21
  %103 = load <4 x float>, ptr %19, align 16, !tbaa !10
  call void @_mm_store_ps(ptr noundef %102, <4 x float> noundef %103)
  %104 = load ptr, ptr %5, align 8, !tbaa !21
  %105 = getelementptr inbounds float, ptr %104, i64 4
  store ptr %105, ptr %5, align 8, !tbaa !21
  %106 = load ptr, ptr %6, align 8, !tbaa !21
  %107 = getelementptr inbounds float, ptr %106, i64 4
  store ptr %107, ptr %6, align 8, !tbaa !21
  %108 = load ptr, ptr %7, align 8, !tbaa !21
  %109 = getelementptr inbounds float, ptr %108, i64 4
  store ptr %109, ptr %7, align 8, !tbaa !21
  call void @llvm.lifetime.end.p0(i64 16, ptr %19) #9
  call void @llvm.lifetime.end.p0(i64 16, ptr %18) #9
  call void @llvm.lifetime.end.p0(i64 16, ptr %17) #9
  call void @llvm.lifetime.end.p0(i64 16, ptr %16) #9
  call void @llvm.lifetime.end.p0(i64 16, ptr %15) #9
  call void @llvm.lifetime.end.p0(i64 16, ptr %14) #9
  br label %110

110:                                              ; preds = %35
  %111 = load i64, ptr %9, align 8, !tbaa !8
  %112 = add i64 %111, 1
  store i64 %112, ptr %9, align 8, !tbaa !8
  br label %30, !llvm.loop !27

113:                                              ; preds = %30
  %114 = load i64, ptr %8, align 8, !tbaa !8
  %115 = and i64 %114, 7
  store i64 %115, ptr %8, align 8, !tbaa !8
  store i64 0, ptr %9, align 8, !tbaa !8
  br label %116

116:                                              ; preds = %158, %113
  %117 = load i64, ptr %9, align 8, !tbaa !8
  %118 = load i64, ptr %8, align 8, !tbaa !8
  %119 = icmp ult i64 %117, %118
  br i1 %119, label %120, label %161

120:                                              ; preds = %116
  call void @llvm.lifetime.start.p0(i64 4, ptr %20) #9
  %121 = load ptr, ptr %5, align 8, !tbaa !21
  %122 = load i64, ptr %9, align 8, !tbaa !8
  %123 = getelementptr inbounds nuw float, ptr %121, i64 %122
  %124 = load float, ptr %123, align 4, !tbaa !24
  store float %124, ptr %20, align 4, !tbaa !24
  call void @llvm.lifetime.start.p0(i64 4, ptr %21) #9
  %125 = load ptr, ptr %6, align 8, !tbaa !21
  %126 = load i64, ptr %9, align 8, !tbaa !8
  %127 = getelementptr inbounds nuw float, ptr %125, i64 %126
  %128 = load float, ptr %127, align 4, !tbaa !24
  store float %128, ptr %21, align 4, !tbaa !24
  call void @llvm.lifetime.start.p0(i64 4, ptr %22) #9
  %129 = load ptr, ptr %7, align 8, !tbaa !21
  %130 = load i64, ptr %9, align 8, !tbaa !8
  %131 = getelementptr inbounds nuw float, ptr %129, i64 %130
  %132 = load float, ptr %131, align 4, !tbaa !24
  store float %132, ptr %22, align 4, !tbaa !24
  call void @llvm.lifetime.start.p0(i64 4, ptr %23) #9
  %133 = load float, ptr %20, align 4, !tbaa !24
  %134 = load float, ptr %22, align 4, !tbaa !24
  %135 = call float @llvm.fmuladd.f32(float %134, float 0x3FF66E9780000000, float %133)
  store float %135, ptr %23, align 4, !tbaa !24
  call void @llvm.lifetime.start.p0(i64 4, ptr %24) #9
  %136 = load float, ptr %20, align 4, !tbaa !24
  %137 = load float, ptr %21, align 4, !tbaa !24
  %138 = fneg float %137
  %139 = call float @llvm.fmuladd.f32(float %138, float 0x3FD60639E0000000, float %136)
  %140 = load float, ptr %22, align 4, !tbaa !24
  %141 = fneg float %140
  %142 = call float @llvm.fmuladd.f32(float %141, float 0x3FE6DA3C20000000, float %139)
  store float %142, ptr %24, align 4, !tbaa !24
  call void @llvm.lifetime.start.p0(i64 4, ptr %25) #9
  %143 = load float, ptr %20, align 4, !tbaa !24
  %144 = load float, ptr %21, align 4, !tbaa !24
  %145 = call float @llvm.fmuladd.f32(float %144, float 0x3FFC5A1CA0000000, float %143)
  store float %145, ptr %25, align 4, !tbaa !24
  %146 = load float, ptr %23, align 4, !tbaa !24
  %147 = load ptr, ptr %5, align 8, !tbaa !21
  %148 = load i64, ptr %9, align 8, !tbaa !8
  %149 = getelementptr inbounds nuw float, ptr %147, i64 %148
  store float %146, ptr %149, align 4, !tbaa !24
  %150 = load float, ptr %24, align 4, !tbaa !24
  %151 = load ptr, ptr %6, align 8, !tbaa !21
  %152 = load i64, ptr %9, align 8, !tbaa !8
  %153 = getelementptr inbounds nuw float, ptr %151, i64 %152
  store float %150, ptr %153, align 4, !tbaa !24
  %154 = load float, ptr %25, align 4, !tbaa !24
  %155 = load ptr, ptr %7, align 8, !tbaa !21
  %156 = load i64, ptr %9, align 8, !tbaa !8
  %157 = getelementptr inbounds nuw float, ptr %155, i64 %156
  store float %154, ptr %157, align 4, !tbaa !24
  call void @llvm.lifetime.end.p0(i64 4, ptr %25) #9
  call void @llvm.lifetime.end.p0(i64 4, ptr %24) #9
  call void @llvm.lifetime.end.p0(i64 4, ptr %23) #9
  call void @llvm.lifetime.end.p0(i64 4, ptr %22) #9
  call void @llvm.lifetime.end.p0(i64 4, ptr %21) #9
  call void @llvm.lifetime.end.p0(i64 4, ptr %20) #9
  br label %158

158:                                              ; preds = %120
  %159 = load i64, ptr %9, align 8, !tbaa !8
  %160 = add i64 %159, 1
  store i64 %160, ptr %9, align 8, !tbaa !8
  br label %116, !llvm.loop !28

161:                                              ; preds = %116
  call void @llvm.lifetime.end.p0(i64 16, ptr %13) #9
  call void @llvm.lifetime.end.p0(i64 16, ptr %12) #9
  call void @llvm.lifetime.end.p0(i64 16, ptr %11) #9
  call void @llvm.lifetime.end.p0(i64 16, ptr %10) #9
  call void @llvm.lifetime.end.p0(i64 8, ptr %9) #9
  ret void
}