; Function Attrs: nofree norecurse nosync nounwind memory(argmem: readwrite) uwtable
define hidden void @opj_mct_decode_real(ptr noalias noundef captures(none) %0, ptr noalias noundef captures(none) %1, ptr noalias noundef captures(none) %2, i64 noundef %3) local_unnamed_addr #1 {
  %5 = lshr i64 %3, 3
  %.not = icmp ult i64 %3, 8
  br i1 %.not, label %._crit_edge, label %.lr.ph

.lr.ph:                                           ; preds = %4, %.lr.ph
  %.080 = phi ptr [ %31, %.lr.ph ], [ %0, %4 ]
  %.07479 = phi ptr [ %32, %.lr.ph ], [ %1, %4 ]
  %.07578 = phi ptr [ %33, %.lr.ph ], [ %2, %4 ]
  %.07677 = phi i64 [ %34, %.lr.ph ], [ 0, %4 ]
  %6 = load <4 x float>, ptr %.080, align 16, !tbaa !3
  %7 = load <4 x float>, ptr %.07479, align 16, !tbaa !3
  %8 = load <4 x float>, ptr %.07578, align 16, !tbaa !3
  %9 = fmul <4 x float> %8, splat (float 0x3FF66E9780000000)
  %10 = fadd <4 x float> %6, %9
  %11 = fmul <4 x float> %7, splat (float 0x3FD60639E0000000)
  %12 = fsub <4 x float> %6, %11
  %13 = fmul <4 x float> %8, splat (float 0x3FE6DA3C20000000)
  %14 = fsub <4 x float> %12, %13
  %15 = fmul <4 x float> %7, splat (float 0x3FFC5A1CA0000000)
  %16 = fadd <4 x float> %6, %15
  store <4 x float> %10, ptr %.080, align 16, !tbaa !3
  store <4 x float> %14, ptr %.07479, align 16, !tbaa !3
  store <4 x float> %16, ptr %.07578, align 16, !tbaa !3
  %17 = getelementptr inbounds nuw i8, ptr %.080, i64 16
  %18 = getelementptr inbounds nuw i8, ptr %.07479, i64 16
  %19 = getelementptr inbounds nuw i8, ptr %.07578, i64 16
  %20 = load <4 x float>, ptr %17, align 16, !tbaa !3
  %21 = load <4 x float>, ptr %18, align 16, !tbaa !3
  %22 = load <4 x float>, ptr %19, align 16, !tbaa !3
  %23 = fmul <4 x float> %22, splat (float 0x3FF66E9780000000)
  %24 = fadd <4 x float> %20, %23
  %25 = fmul <4 x float> %21, splat (float 0x3FD60639E0000000)
  %26 = fsub <4 x float> %20, %25
  %27 = fmul <4 x float> %22, splat (float 0x3FE6DA3C20000000)
  %28 = fsub <4 x float> %26, %27
  %29 = fmul <4 x float> %21, splat (float 0x3FFC5A1CA0000000)
  %30 = fadd <4 x float> %20, %29
  store <4 x float> %24, ptr %17, align 16, !tbaa !3
  store <4 x float> %28, ptr %18, align 16, !tbaa !3
  store <4 x float> %30, ptr %19, align 16, !tbaa !3
  %31 = getelementptr inbounds nuw i8, ptr %.080, i64 32
  %32 = getelementptr inbounds nuw i8, ptr %.07479, i64 32
  %33 = getelementptr inbounds nuw i8, ptr %.07578, i64 32
  %34 = add nuw nsw i64 %.07677, 1
  %exitcond.not = icmp eq i64 %34, %5
  br i1 %exitcond.not, label %._crit_edge, label %.lr.ph, !llvm.loop !19

._crit_edge:                                      ; preds = %.lr.ph, %4
  %.075.lcssa = phi ptr [ %2, %4 ], [ %33, %.lr.ph ]
  %.074.lcssa = phi ptr [ %1, %4 ], [ %32, %.lr.ph ]
  %.0.lcssa = phi ptr [ %0, %4 ], [ %31, %.lr.ph ]
  %35 = and i64 %3, 7
  %.not87 = icmp eq i64 %35, 0
  br i1 %.not87, label %._crit_edge86, label %.lr.ph85

.lr.ph85:                                         ; preds = %._crit_edge, %.lr.ph85
  %.183 = phi i64 [ %48, %.lr.ph85 ], [ 0, %._crit_edge ]
  %36 = getelementptr inbounds nuw float, ptr %.0.lcssa, i64 %.183
  %37 = load float, ptr %36, align 4, !tbaa !16
  %38 = getelementptr inbounds nuw float, ptr %.074.lcssa, i64 %.183
  %39 = load float, ptr %38, align 4, !tbaa !16
  %40 = getelementptr inbounds nuw float, ptr %.075.lcssa, i64 %.183
  %41 = load float, ptr %40, align 4, !tbaa !16
  %42 = tail call float @llvm.fmuladd.f32(float %41, float 0x3FF66E9780000000, float %37)
  %43 = fneg float %39
  %44 = tail call float @llvm.fmuladd.f32(float %43, float 0x3FD60639E0000000, float %37)
  %45 = fneg float %41
  %46 = tail call float @llvm.fmuladd.f32(float %45, float 0x3FE6DA3C20000000, float %44)
  %47 = tail call float @llvm.fmuladd.f32(float %39, float 0x3FFC5A1CA0000000, float %37)
  store float %42, ptr %36, align 4, !tbaa !16
  store float %46, ptr %38, align 4, !tbaa !16
  store float %47, ptr %40, align 4, !tbaa !16
  %48 = add nuw nsw i64 %.183, 1
  %exitcond90.not = icmp eq i64 %48, %35
  br i1 %exitcond90.not, label %._crit_edge86, label %.lr.ph85, !llvm.loop !20

._crit_edge86:                                    ; preds = %.lr.ph85, %._crit_edge
  ret void
}